target datalayout = "e-m:e-p270:32:32-p271:32:32-p272:64:64-i64:64-i128:128-f80:128-n8:16:32:64-S128"
target triple = "x86_64-pc-linux-gnu"

%struct.PROV_SEED_SRC = type { ptr, i32 }

@.str = private unnamed_addr constant [54 x i8] c"../openssl/providers/implementations/rands/seed_src.c\00", align 1
@__func__.seed_src_reseed = private unnamed_addr constant [16 x i8] c"seed_src_reseed\00", align 1

; Function Attrs: nounwind uwtable
define internal i32 @seed_src_reseed(ptr noundef %0, i32 noundef %1, ptr noundef %2, i64 noundef %3, ptr noundef %4, i64 noundef %5) #0 {
  %7 = alloca i32, align 4
  %8 = alloca ptr, align 8
  %9 = alloca i32, align 4
  %10 = alloca ptr, align 8
  %11 = alloca i64, align 8
  %12 = alloca ptr, align 8
  %13 = alloca i64, align 8
  %14 = alloca ptr, align 8
  %15 = alloca i32, align 4
  store ptr %0, ptr %8, align 8, !tbaa !3
  store i32 %1, ptr %9, align 4, !tbaa !13
  store ptr %2, ptr %10, align 8, !tbaa !14
  store i64 %3, ptr %11, align 8, !tbaa !16
  store ptr %4, ptr %12, align 8, !tbaa !14
  store i64 %5, ptr %13, align 8, !tbaa !16
  call void @llvm.lifetime.start.p0(i64 8, ptr %14) #4
  %16 = load ptr, ptr %8, align 8, !tbaa !3
  store ptr %16, ptr %14, align 8, !tbaa !3
  %17 = load ptr, ptr %14, align 8, !tbaa !3
  %18 = getelementptr inbounds nuw %struct.PROV_SEED_SRC, ptr %17, i32 0, i32 1
  %19 = load i32, ptr %18, align 8, !tbaa !12
  %20 = icmp ne i32 %19, 1
  br i1 %20, label %21, label %27

21:                                               ; preds = %6
  call void @ERR_new()
  call void @ERR_set_debug(ptr noundef @.str, i32 noundef 138, ptr noundef @__func__.seed_src_reseed)
  %22 = load ptr, ptr %14, align 8, !tbaa !3
  %23 = getelementptr inbounds nuw %struct.PROV_SEED_SRC, ptr %22, i32 0, i32 1
  %24 = load i32, ptr %23, align 8, !tbaa !12
  %25 = icmp eq i32 %24, 2
  %26 = select i1 %25, i32 192, i32 193
  call void (i32, i32, ptr, ...) @ERR_set_error(i32 noundef 57, i32 noundef %26, ptr noundef null)
  store i32 0, ptr %7, align 4
  store i32 1, ptr %15, align 4
  br label %28

27:                                               ; preds = %6
  store i32 1, ptr %7, align 4
  store i32 1, ptr %15, align 4
  br label %28

28:                                               ; preds = %27, %21
  call void @llvm.lifetime.end.p0(i64 8, ptr %14) #4
  %29 = load i32, ptr %7, align 4
  ret i32 %29
}