; Function Attrs: nounwind uwtable
define internal range(i32 0, 2) i32 @seed_src_reseed(ptr noundef readonly captures(none) %0, i32 %1, ptr readnone captures(none) %2, i64 %3, ptr readnone captures(none) %4, i64 %5) #0 {
  %7 = getelementptr inbounds nuw i8, ptr %0, i64 8
  %8 = load i32, ptr %7, align 8, !tbaa !9
  %.not = icmp eq i32 %8, 1
  br i1 %.not, label %13, label %9

9:                                                ; preds = %6
  tail call void @ERR_new() #5
  tail call void @ERR_set_debug(ptr noundef nonnull @.str, i32 noundef 138, ptr noundef nonnull @__func__.seed_src_reseed) #5
  %10 = load i32, ptr %7, align 8, !tbaa !9
  %11 = icmp eq i32 %10, 2
  %12 = select i1 %11, i32 192, i32 193
  tail call void (i32, i32, ptr, ...) @ERR_set_error(i32 noundef 57, i32 noundef %12, ptr noundef null) #5
  br label %13

13:                                               ; preds = %6, %9
  %.0 = phi i32 [ 0, %9 ], [ 1, %6 ]
  ret i32 %.0
}